; Function Attrs: mustprogress uwtable
define hidden void @_ZN4cvc58internal11NodeManager6mkNodeENS0_12NodeTemplateILb0EEESt16initializer_listIS3_E(ptr noalias sret(%"class.cvc5::internal::NodeTemplate") align 8 %agg.result, ptr noundef nonnull align 8 dereferenceable(3360) %this, ptr nocapture noundef readonly %opNode, ptr readonly %children.coerce0, i64 %children.coerce1) local_unnamed_addr #3 align 2 personality ptr @__gxx_personality_v0 {
entry:
  %agg.tmp.i = alloca %"class.cvc5::internal::NodeTemplate.280", align 8
  %nb = alloca %"class.cvc5::internal::NodeBuilder", align 8
  %agg.tmp6 = alloca %"class.cvc5::internal::NodeTemplate.280", align 8
  %0 = load ptr, ptr %opNode, align 8
  %call.i3 = tail call noundef i32 @_ZN4cvc58internal4kind14operatorToKindEPNS0_4expr9NodeValueE(ptr noundef %0)
  call void @_ZN4cvc58internal11NodeBuilderC1EPNS0_11NodeManagerENS0_4kind6Kind_tE(ptr noundef nonnull align 8 dereferenceable(116) %nb, ptr noundef nonnull %this, i32 noundef %call.i3)
  %1 = load ptr, ptr %opNode, align 8
  %d_kind.i = getelementptr inbounds i8, ptr %1, i64 8
  %bf.load.i = load i16, ptr %d_kind.i, align 8
  %bf.clear.i = and i16 %bf.load.i, 1023
  %cmp.not = icmp eq i16 %bf.clear.i, 4
  br i1 %cmp.not, label %if.end, label %if.then

if.then:                                          ; preds = %entry
  store ptr %1, ptr %agg.tmp6, align 8
  %call10 = invoke noundef nonnull align 8 dereferenceable(116) ptr @_ZN4cvc58internal11NodeBuilderlsENS0_12NodeTemplateILb0EEE(ptr noundef nonnull align 8 dereferenceable(116) %nb, ptr noundef nonnull %agg.tmp6)
          to label %if.end unwind label %lpad8

lpad3.loopexit:                                   ; preds = %for.body.i
  %lpad.loopexit = landingpad { ptr, i32 }
          cleanup
  br label %ehcleanup

lpad3.loopexit.split-lp:                          ; preds = %invoke.cont14
  %lpad.loopexit.split-lp = landingpad { ptr, i32 }
          cleanup
  br label %ehcleanup

lpad8:                                            ; preds = %if.then
  %2 = landingpad { ptr, i32 }
          cleanup
  br label %ehcleanup

if.end:                                           ; preds = %if.then, %entry
  %add.ptr.i = getelementptr inbounds %"class.cvc5::internal::NodeTemplate.280", ptr %children.coerce0, i64 %children.coerce1
  call void @llvm.lifetime.start.p0(i64 8, ptr nonnull %agg.tmp.i)
  %cmp.not3.i = icmp eq i64 %children.coerce1, 0
  br i1 %cmp.not3.i, label %invoke.cont14, label %for.body.i

for.body.i:                                       ; preds = %if.end, %call.i.noexc
  %i.04.i = phi ptr [ %incdec.ptr.i, %call.i.noexc ], [ %children.coerce0, %if.end ]
  %3 = load ptr, ptr %i.04.i, align 8
  store ptr %3, ptr %agg.tmp.i, align 8
  %call.i4 = invoke noundef nonnull align 8 dereferenceable(116) ptr @_ZN4cvc58internal11NodeBuilder6appendENS0_12NodeTemplateILb0EEE(ptr noundef nonnull align 8 dereferenceable(116) %nb, ptr noundef nonnull %agg.tmp.i)
          to label %call.i.noexc unwind label %lpad3.loopexit

call.i.noexc:                                     ; preds = %for.body.i
  %incdec.ptr.i = getelementptr inbounds i8, ptr %i.04.i, i64 8
  %cmp.not.i = icmp eq ptr %incdec.ptr.i, %add.ptr.i
  br i1 %cmp.not.i, label %invoke.cont14, label %for.body.i, !llvm.loop !194

invoke.cont14:                                    ; preds = %call.i.noexc, %if.end
  call void @llvm.lifetime.end.p0(i64 8, ptr nonnull %agg.tmp.i)
  invoke void @_ZN4cvc58internal11NodeBuilder13constructNodeEv(ptr sret(%"class.cvc5::internal::NodeTemplate") align 8 %agg.result, ptr noundef nonnull align 8 dereferenceable(116) %nb)
          to label %invoke.cont16 unwind label %lpad3.loopexit.split-lp

invoke.cont16:                                    ; preds = %invoke.cont14
  call void @_ZN4cvc58internal11NodeBuilderD1Ev(ptr noundef nonnull align 8 dereferenceable(116) %nb) #7
  ret void

ehcleanup:                                        ; preds = %lpad3.loopexit, %lpad3.loopexit.split-lp, %lpad8
  %.pn = phi { ptr, i32 } [ %2, %lpad8 ], [ %lpad.loopexit, %lpad3.loopexit ], [ %lpad.loopexit.split-lp, %lpad3.loopexit.split-lp ]
  call void @_ZN4cvc58internal11NodeBuilderD1Ev(ptr noundef nonnull align 8 dereferenceable(116) %nb) #7
  resume { ptr, i32 } %.pn
}